; Function Attrs: nounwind uwtable
define internal i32 @SpoolssGetForm_r(ptr noundef %0, i32 noundef %1, ptr noundef %2, ptr noundef %3, ptr noundef initializes((88, 96)) %4, ptr noundef %5) #0 {
  %7 = alloca %struct.BUFFER, align 8
  %8 = getelementptr inbounds nuw i8, ptr %4, i64 72
  %9 = load ptr, ptr %8, align 8
  %10 = getelementptr inbounds nuw i8, ptr %9, i64 72
  %11 = load ptr, ptr %10, align 8
  %12 = ptrtoint ptr %11 to i64
  %13 = trunc i64 %12 to i32
  %14 = load i32, ptr @hf_form, align 4
  %15 = tail call ptr @proto_tree_add_uint(ptr noundef %3, i32 noundef %14, ptr noundef %0, i32 noundef %1, i32 noundef 0, i32 noundef 1) #5
  %.not.i = icmp eq ptr %15, null
  br i1 %.not.i, label %proto_item_set_hidden.exit, label %16

16:                                               ; preds = %6
  %17 = getelementptr inbounds nuw i8, ptr %15, i64 32
  %18 = load ptr, ptr %17, align 8
  %.not5.i = icmp eq ptr %18, null
  br i1 %.not5.i, label %proto_item_set_hidden.exit, label %19

19:                                               ; preds = %16
  %20 = getelementptr inbounds nuw i8, ptr %18, i64 28
  %21 = load i32, ptr %20, align 4
  %22 = or i32 %21, 1
  store i32 %22, ptr %20, align 4
  br label %proto_item_set_hidden.exit

proto_item_set_hidden.exit:                       ; preds = %6, %16, %19
  call void @llvm.memset.p0.i64(ptr noundef nonnull align 8 dereferenceable(24) %7, i8 0, i64 24, i1 false)
  %23 = getelementptr inbounds nuw i8, ptr %4, i64 88
  store ptr %7, ptr %23, align 8
  %24 = call i32 @dissect_ndr_pointer(ptr noundef %0, i32 noundef %1, ptr noundef %2, ptr noundef %3, ptr noundef nonnull %4, ptr noundef %5, ptr noundef nonnull @dissect_spoolss_buffer_data, i32 noundef 2, ptr noundef nonnull @.str.435, i32 noundef -1) #5
  %25 = load i32, ptr @hf_needed, align 4
  %26 = call i32 @dissect_ndr_uint32(ptr noundef %0, i32 noundef %24, ptr noundef %2, ptr noundef %3, ptr noundef nonnull %4, ptr noundef %5, i32 noundef %25, ptr noundef null) #5
  %27 = getelementptr inbounds nuw i8, ptr %2, i64 8
  %28 = load ptr, ptr %27, align 8
  call void (ptr, i32, ptr, ...) @col_append_fstr(ptr noundef %28, i32 noundef 25, ptr noundef nonnull @.str.1206, i32 noundef %13) #5
  %29 = load ptr, ptr %7, align 8
  %.not = icmp eq ptr %29, null
  br i1 %.not, label %37, label %30

30:                                               ; preds = %proto_item_set_hidden.exit
  %cond = icmp eq i32 %13, 1
  br i1 %cond, label %31, label %33

31:                                               ; preds = %30
  %32 = call fastcc i32 @dissect_FORM_REL(ptr noundef nonnull %29, i32 noundef 0, ptr noundef nonnull %2, ptr noundef %3, ptr noundef nonnull %4, ptr noundef %5, i32 noundef 0)
  br label %37

33:                                               ; preds = %30
  %34 = getelementptr inbounds nuw i8, ptr %7, i64 8
  %35 = load ptr, ptr %34, align 8
  %36 = call ptr (ptr, ptr, ptr, ptr, i32, i32, ptr, ...) @proto_tree_add_expert_format(ptr noundef %35, ptr noundef nonnull %2, ptr noundef nonnull @ei_form_level, ptr noundef nonnull %29, i32 noundef 0, i32 noundef -1, ptr noundef nonnull @.str.10, i32 noundef %13) #5
  br label %37

37:                                               ; preds = %31, %33, %proto_item_set_hidden.exit
  %38 = load i32, ptr @hf_rc, align 4
  %39 = call i32 @dissect_doserror(ptr noundef %0, i32 noundef %26, ptr noundef nonnull %2, ptr noundef %3, ptr noundef nonnull %4, ptr noundef %5, i32 noundef %38, ptr noundef null) #5
  ret i32 %39
}